---
triple:          'arm64-apple-darwin'
binary-path:     '/Users/wenyuc/Dev/quant_dev/binomial_option/binomial_euro_call'
relocations:
  - { offset: 0x51F6, size: 0x8, addend: 0x0, symName: __ZNSt3__16__math3powB8ne180100IdiLi0EEENS_9__promoteIT_T0_vE4typeES3_S4_, symObjAddr: 0x528, symBinAddr: 0x1000047B8, symSize: 0x38 }
  - { offset: 0x5253, size: 0x8, addend: 0x0, symName: __ZNSt3__16__math3powB8ne180100IiEEddd, symObjAddr: 0x2B10, symBinAddr: 0x100006DA0, symSize: 0x2C }
  - { offset: 0x5317, size: 0x8, addend: 0x0, symName: __ZNSt3__124__put_character_sequenceB8ne180100IcNS_11char_traitsIcEEEERNS_13basic_ostreamIT_T0_EES7_PKS4_m, symObjAddr: 0x2B3C, symBinAddr: 0x100006DCC, symSize: 0x1EC }
  - { offset: 0x6393, size: 0x8, addend: 0x0, symName: __ZNSt3__13maxB8ne180100IdEERKT_S3_S3_, symObjAddr: 0x5B0, symBinAddr: 0x100004840, symSize: 0x2C }
  - { offset: 0x63D6, size: 0x8, addend: 0x0, symName: __ZNSt3__1lsB8ne180100INS_11char_traitsIcEEEERNS_13basic_ostreamIcT_EES6_PKc, symObjAddr: 0x728, symBinAddr: 0x1000049B8, symSize: 0x48 }
  - { offset: 0x641C, size: 0x8, addend: 0x0, symName: __ZNSt3__1lsB8ne180100INS_11char_traitsIcEEEERNS_13basic_ostreamIcT_EES6_c, symObjAddr: 0x770, symBinAddr: 0x100004A00, symSize: 0x34 }
  - { offset: 0x6462, size: 0x8, addend: 0x0, symName: __ZNSt3__13maxB8ne180100IdNS_6__lessIvvEEEERKT_S5_S5_T0_, symObjAddr: 0x7A4, symBinAddr: 0x100004A34, symSize: 0x54 }
  - { offset: 0x6532, size: 0x8, addend: 0x0, symName: __ZNSt3__122__make_exception_guardB8ne180100INS_6vectorIdNS_9allocatorIdEEE16__destroy_vectorEEENS_28__exception_guard_exceptionsIT_EES7_, symObjAddr: 0x944, symBinAddr: 0x100004BD4, symSize: 0x40 }
  - { offset: 0x6567, size: 0x8, addend: 0x0, symName: __ZNSt3__119__allocate_at_leastB8ne180100INS_9allocatorIdEEEENS_19__allocation_resultINS_16allocator_traitsIT_E7pointerEEERS5_m, symObjAddr: 0xD38, symBinAddr: 0x100004FC8, symSize: 0x40 }
  - { offset: 0x65AA, size: 0x8, addend: 0x0, symName: __ZNSt3__13minB8ne180100ImEERKT_S3_S3_, symObjAddr: 0xDDC, symBinAddr: 0x10000506C, symSize: 0x2C }
  - { offset: 0x67EE, size: 0x8, addend: 0x0, symName: __ZNSt3__13minB8ne180100ImNS_6__lessIvvEEEERKT_S5_S5_T0_, symObjAddr: 0xE78, symBinAddr: 0x100005108, symSize: 0x54 }
  - { offset: 0x6848, size: 0x8, addend: 0x0, symName: __ZNSt3__120__throw_length_errorB8ne180100EPKc, symObjAddr: 0xF54, symBinAddr: 0x1000051E4, symSize: 0x64 }
  - { offset: 0x6870, size: 0x8, addend: 0x0, symName: __ZNSt3__117__libcpp_allocateB8ne180100Emm, symObjAddr: 0x10BC, symBinAddr: 0x10000534C, symSize: 0x28 }
  - { offset: 0x68AD, size: 0x8, addend: 0x0, symName: __ZNSt3__121__libcpp_operator_newB8ne180100IJmEEEPvDpT_, symObjAddr: 0x10E4, symBinAddr: 0x100005374, symSize: 0x24 }
  - { offset: 0x68E6, size: 0x8, addend: 0x0, symName: __ZNSt3__112__to_addressB8ne180100IdEEPT_S2_, symObjAddr: 0x11E8, symBinAddr: 0x100005478, symSize: 0x14 }
  - { offset: 0x691B, size: 0x8, addend: 0x0, symName: __ZNSt3__119__libcpp_deallocateB8ne180100EPvmm, symObjAddr: 0x154C, symBinAddr: 0x1000057DC, symSize: 0x30 }
  - { offset: 0x6963, size: 0x8, addend: 0x0, symName: __ZNSt3__127__do_deallocate_handle_sizeB8ne180100IJEEEvPvmDpT_, symObjAddr: 0x157C, symBinAddr: 0x10000580C, symSize: 0x28 }
  - { offset: 0x69A1, size: 0x8, addend: 0x0, symName: __ZNSt3__124__libcpp_operator_deleteB8ne180100IJPvEEEvDpT_, symObjAddr: 0x15A4, symBinAddr: 0x100005834, symSize: 0x24 }
  - { offset: 0x69D6, size: 0x8, addend: 0x0, symName: __ZNSt3__122__make_exception_guardB8ne180100INS_6vectorINS1_IdNS_9allocatorIdEEEENS2_IS4_EEE16__destroy_vectorEEENS_28__exception_guard_exceptionsIT_EES9_, symObjAddr: 0x1780, symBinAddr: 0x100005A10, symSize: 0x40 }
  - { offset: 0x6A0B, size: 0x8, addend: 0x0, symName: __ZNSt3__119__allocate_at_leastB8ne180100INS_9allocatorINS_6vectorIdNS1_IdEEEEEEEENS_19__allocation_resultINS_16allocator_traitsIT_E7pointerEEERS8_m, symObjAddr: 0x1B7C, symBinAddr: 0x100005E0C, symSize: 0x40 }
  - { offset: 0x6A4E, size: 0x8, addend: 0x0, symName: __ZNSt3__112__to_addressB8ne180100INS_6vectorIdNS_9allocatorIdEEEEEEPT_S6_, symObjAddr: 0x1DF8, symBinAddr: 0x100006088, symSize: 0x14 }
  - { offset: 0x6A83, size: 0x8, addend: 0x0, symName: __ZNSt3__130__uninitialized_allocator_copyB8ne180100INS_9allocatorIdEEPdS3_S3_EET2_RT_T0_T1_S4_, symObjAddr: 0x2190, symBinAddr: 0x100006420, symSize: 0x80 }
  - { offset: 0x6B20, size: 0x8, addend: 0x0, symName: __ZNSt3__114__unwrap_rangeB8ne180100IPdS1_EENS_4pairIT0_S3_EET_S5_, symObjAddr: 0x2210, symBinAddr: 0x1000064A0, symSize: 0x60 }
  - { offset: 0x6B6C, size: 0x8, addend: 0x0, symName: __ZNSt3__135__uninitialized_allocator_copy_implB8ne180100INS_9allocatorIdEEdddLPv0EEEPT2_RT_PT0_S9_S5_, symObjAddr: 0x2270, symBinAddr: 0x100006500, symSize: 0x38 }
  - { offset: 0x6BED, size: 0x8, addend: 0x0, symName: __ZNSt3__113__unwrap_iterB8ne180100IPdNS_18__unwrap_iter_implIS1_Lb1EEELi0EEEDTclsrT0_8__unwrapclsr3stdE7declvalIT_EEEES5_, symObjAddr: 0x22A8, symBinAddr: 0x100006538, symSize: 0x24 }
  - { offset: 0x6C31, size: 0x8, addend: 0x0, symName: __ZNSt3__113__rewrap_iterB8ne180100IPdS1_NS_18__unwrap_iter_implIS1_Lb1EEEEET_S4_T0_, symObjAddr: 0x22CC, symBinAddr: 0x10000655C, symSize: 0x3C }
  - { offset: 0x6C86, size: 0x8, addend: 0x0, symName: __ZNSt3__19make_pairB8ne180100IPdS1_EENS_4pairINS_18__unwrap_ref_decayIT_E4typeENS3_IT0_E4typeEEEOS4_OS7_, symObjAddr: 0x2308, symBinAddr: 0x100006598, symSize: 0x38 }
  - { offset: 0x6DD8, size: 0x8, addend: 0x0, symName: __ZNSt3__14copyB8ne180100IPdS1_EET0_T_S3_S2_, symObjAddr: 0x23B0, symBinAddr: 0x100006640, symSize: 0x40 }
  - { offset: 0x6E32, size: 0x8, addend: 0x0, symName: __ZNSt3__16__copyB8ne180100INS_17_ClassicAlgPolicyEPdS2_S2_EENS_4pairIT0_T2_EES4_T1_S5_, symObjAddr: 0x23F0, symBinAddr: 0x100006680, symSize: 0x44 }
  - { offset: 0x6E9E, size: 0x8, addend: 0x0, symName: __ZNSt3__123__dispatch_copy_or_moveB8ne180100INS_17_ClassicAlgPolicyENS_11__copy_loopIS1_EENS_14__copy_trivialEPdS5_S5_EENS_4pairIT2_T4_EES7_T3_S8_, symObjAddr: 0x2434, symBinAddr: 0x1000066C4, symSize: 0x44 }
  - { offset: 0x6F1C, size: 0x8, addend: 0x0, symName: __ZNSt3__121__unwrap_and_dispatchB8ne180100INS_10__overloadINS_11__copy_loopINS_17_ClassicAlgPolicyEEENS_14__copy_trivialEEEPdS7_S7_Li0EEENS_4pairIT0_T2_EES9_T1_SA_, symObjAddr: 0x2478, symBinAddr: 0x100006708, symSize: 0xB4 }
  - { offset: 0x6FF0, size: 0x8, addend: 0x0, symName: __ZNSt3__114__rewrap_rangeB8ne180100IPdS1_EET_S2_T0_, symObjAddr: 0x2574, symBinAddr: 0x100006804, symSize: 0x2C }
  - { offset: 0x703C, size: 0x8, addend: 0x0, symName: __ZNSt3__119__copy_trivial_implB8ne180100IddEENS_4pairIPT_PT0_EES3_S3_S5_, symObjAddr: 0x25A0, symBinAddr: 0x100006830, symSize: 0x80 }
  - { offset: 0x70A4, size: 0x8, addend: 0x0, symName: __ZNSt3__119__constexpr_memmoveB8ne180100IddLi0EEEPT_S2_PT0_NS_15__element_countE, symObjAddr: 0x2620, symBinAddr: 0x1000068B0, symSize: 0x64 }
  - { offset: 0x7112, size: 0x8, addend: 0x0, symName: __ZNSt3__19make_pairB8ne180100IRPdS1_EENS_4pairINS_18__unwrap_ref_decayIT_E4typeENS4_IT0_E4typeEEEOS5_OS8_, symObjAddr: 0x2684, symBinAddr: 0x100006914, symSize: 0x38 }
  - { offset: 0x71B4, size: 0x8, addend: 0x0, symName: __ZNSt3__116__pad_and_outputB8ne180100IcNS_11char_traitsIcEEEENS_19ostreambuf_iteratorIT_T0_EES6_PKS4_S8_S8_RNS_8ios_baseES4_, symObjAddr: 0x2D78, symBinAddr: 0x100007008, symSize: 0x240 }
  - { offset: 0x7283, size: 0x8, addend: 0x0, symName: __ZNSt3__112__to_addressB8ne180100IKcEEPT_S3_, symObjAddr: 0x32E0, symBinAddr: 0x100007570, symSize: 0x14 }
  - { offset: 0x72EB, size: 0x8, addend: 0x0, symName: __ZNSt3__19use_facetB8ne180100INS_5ctypeIcEEEERKT_RKNS_6localeE, symObjAddr: 0x3560, symBinAddr: 0x1000077F0, symSize: 0x2C }
  - { offset: 0x77B8, size: 0x8, addend: 0x0, symName: __ZNSt3__118__constexpr_strlenB8ne180100EPKc, symObjAddr: 0x35F8, symBinAddr: 0x100007888, symSize: 0x24 }
  - { offset: 0x86F0, size: 0x8, addend: 0x0, symName: __ZSt28__throw_bad_array_new_lengthB8ne180100v, symObjAddr: 0x1088, symBinAddr: 0x100005318, symSize: 0x34 }
  - { offset: 0x8D73, size: 0x8, addend: 0x0, symName: __Z16createZeroMatrixd, symObjAddr: 0x0, symBinAddr: 0x100004290, symSize: 0x8C }
  - { offset: 0x8D9F, size: 0x8, addend: 0x0, symName: __ZNSt3__16vectorIdNS_9allocatorIdEEEC1EmRKd, symObjAddr: 0x8C, symBinAddr: 0x10000431C, symSize: 0x3C }
  - { offset: 0x8DE7, size: 0x8, addend: 0x0, symName: __ZNSt3__16vectorINS0_IdNS_9allocatorIdEEEENS1_IS3_EEEC1EmRKS3_, symObjAddr: 0xC8, symBinAddr: 0x100004358, symSize: 0x3C }
  - { offset: 0x8E2F, size: 0x8, addend: 0x0, symName: __ZNSt3__16vectorIdNS_9allocatorIdEEED1B8ne180100Ev, symObjAddr: 0x104, symBinAddr: 0x100004394, symSize: 0x2C }
  - { offset: 0x8E57, size: 0x8, addend: 0x0, symName: __Z9euro_calldddddi, symObjAddr: 0x130, symBinAddr: 0x1000043C0, symSize: 0x3F8 }
  - { offset: 0x8FAC, size: 0x8, addend: 0x0, symName: __ZNSt3__16vectorINS0_IdNS_9allocatorIdEEEENS1_IS3_EEEixB8ne180100Em, symObjAddr: 0x560, symBinAddr: 0x1000047F0, symSize: 0x2C }
  - { offset: 0x8FE1, size: 0x8, addend: 0x0, symName: __ZNSt3__16vectorIdNS_9allocatorIdEEEixB8ne180100Em, symObjAddr: 0x58C, symBinAddr: 0x10000481C, symSize: 0x24 }
  - { offset: 0x9016, size: 0x8, addend: 0x0, symName: __ZNSt3__16vectorINS0_IdNS_9allocatorIdEEEENS1_IS3_EEED1B8ne180100Ev, symObjAddr: 0x5DC, symBinAddr: 0x10000486C, symSize: 0x2C }
  - { offset: 0x903E, size: 0x8, addend: 0x0, symName: _main, symObjAddr: 0x608, symBinAddr: 0x100004898, symSize: 0x120 }
  - { offset: 0x90B6, size: 0x8, addend: 0x0, symName: __ZNKSt3__16__lessIvvEclB8ne180100IddEEbRKT_RKT0_, symObjAddr: 0x7F8, symBinAddr: 0x100004A88, symSize: 0x34 }
  - { offset: 0x9108, size: 0x8, addend: 0x0, symName: __ZNSt3__16vectorIdNS_9allocatorIdEEEC2EmRKd, symObjAddr: 0x82C, symBinAddr: 0x100004ABC, symSize: 0xDC }
  - { offset: 0x9174, size: 0x8, addend: 0x0, symName: __ZNSt3__117__compressed_pairIPdNS_9allocatorIdEEEC1B8ne180100IDnNS_18__default_init_tagEEEOT_OT0_, symObjAddr: 0x908, symBinAddr: 0x100004B98, symSize: 0x3C }
  - { offset: 0x91CA, size: 0x8, addend: 0x0, symName: __ZNSt3__16vectorIdNS_9allocatorIdEEE16__destroy_vectorC1B8ne180100ERS3_, symObjAddr: 0x984, symBinAddr: 0x100004C14, symSize: 0x34 }
  - { offset: 0x9201, size: 0x8, addend: 0x0, symName: __ZNSt3__16vectorIdNS_9allocatorIdEEE11__vallocateB8ne180100Em, symObjAddr: 0x9B8, symBinAddr: 0x100004C48, symSize: 0xAC }
  - { offset: 0x9243, size: 0x8, addend: 0x0, symName: __ZNSt3__16vectorIdNS_9allocatorIdEEE18__construct_at_endEmRKd, symObjAddr: 0xA64, symBinAddr: 0x100004CF4, symSize: 0xD0 }
  - { offset: 0x92C2, size: 0x8, addend: 0x0, symName: __ZNSt3__128__exception_guard_exceptionsINS_6vectorIdNS_9allocatorIdEEE16__destroy_vectorEE10__completeB8ne180100Ev, symObjAddr: 0xB34, symBinAddr: 0x100004DC4, symSize: 0x1C }
  - { offset: 0x92E6, size: 0x8, addend: 0x0, symName: __ZNSt3__128__exception_guard_exceptionsINS_6vectorIdNS_9allocatorIdEEE16__destroy_vectorEED1B8ne180100Ev, symObjAddr: 0xB50, symBinAddr: 0x100004DE0, symSize: 0x2C }
  - { offset: 0x930E, size: 0x8, addend: 0x0, symName: __ZNSt3__117__compressed_pairIPdNS_9allocatorIdEEEC2B8ne180100IDnNS_18__default_init_tagEEEOT_OT0_, symObjAddr: 0xB7C, symBinAddr: 0x100004E0C, symSize: 0x40 }
  - { offset: 0x9365, size: 0x8, addend: 0x0, symName: __ZNSt3__122__compressed_pair_elemIPdLi0ELb0EEC2B8ne180100IDnvEEOT_, symObjAddr: 0xBBC, symBinAddr: 0x100004E4C, symSize: 0x1C }
  - { offset: 0x93A5, size: 0x8, addend: 0x0, symName: __ZNSt3__122__compressed_pair_elemINS_9allocatorIdEELi1ELb1EEC2B8ne180100ENS_18__default_init_tagE, symObjAddr: 0xBD8, symBinAddr: 0x100004E68, symSize: 0x2C }
  - { offset: 0x93D8, size: 0x8, addend: 0x0, symName: __ZNSt3__19allocatorIdEC2B8ne180100Ev, symObjAddr: 0xC04, symBinAddr: 0x100004E94, symSize: 0x2C }
  - { offset: 0x9401, size: 0x8, addend: 0x0, symName: __ZNSt3__116__non_trivial_ifILb1ENS_9allocatorIdEEEC2B8ne180100Ev, symObjAddr: 0xC30, symBinAddr: 0x100004EC0, symSize: 0x14 }
  - { offset: 0x9429, size: 0x8, addend: 0x0, symName: __ZNSt3__128__exception_guard_exceptionsINS_6vectorIdNS_9allocatorIdEEE16__destroy_vectorEEC1B8ne180100ES5_, symObjAddr: 0xC44, symBinAddr: 0x100004ED4, symSize: 0x34 }
  - { offset: 0x9460, size: 0x8, addend: 0x0, symName: __ZNSt3__128__exception_guard_exceptionsINS_6vectorIdNS_9allocatorIdEEE16__destroy_vectorEEC2B8ne180100ES5_, symObjAddr: 0xC78, symBinAddr: 0x100004F08, symSize: 0x24 }
  - { offset: 0x9497, size: 0x8, addend: 0x0, symName: __ZNSt3__16vectorIdNS_9allocatorIdEEE16__destroy_vectorC2B8ne180100ERS3_, symObjAddr: 0xC9C, symBinAddr: 0x100004F2C, symSize: 0x20 }
  - { offset: 0x94CE, size: 0x8, addend: 0x0, symName: __ZNKSt3__16vectorIdNS_9allocatorIdEEE8max_sizeEv, symObjAddr: 0xCBC, symBinAddr: 0x100004F4C, symSize: 0x60 }
  - { offset: 0x94F4, size: 0x8, addend: 0x0, symName: __ZNKSt3__16vectorIdNS_9allocatorIdEEE20__throw_length_errorB8ne180100Ev, symObjAddr: 0xD1C, symBinAddr: 0x100004FAC, symSize: 0x1C }
  - { offset: 0x9518, size: 0x8, addend: 0x0, symName: __ZNSt3__16vectorIdNS_9allocatorIdEEE7__allocB8ne180100Ev, symObjAddr: 0xD78, symBinAddr: 0x100005008, symSize: 0x28 }
  - { offset: 0x953C, size: 0x8, addend: 0x0, symName: __ZNSt3__16vectorIdNS_9allocatorIdEEE9__end_capB8ne180100Ev, symObjAddr: 0xDA0, symBinAddr: 0x100005030, symSize: 0x28 }
  - { offset: 0x9560, size: 0x8, addend: 0x0, symName: __ZNKSt3__16vectorIdNS_9allocatorIdEEE14__annotate_newB8ne180100Em, symObjAddr: 0xDC8, symBinAddr: 0x100005058, symSize: 0x14 }
  - { offset: 0x959E, size: 0x8, addend: 0x0, symName: __ZNSt3__116allocator_traitsINS_9allocatorIdEEE8max_sizeB8ne180100IS2_vEEmRKS2_, symObjAddr: 0xE08, symBinAddr: 0x100005098, symSize: 0x24 }
  - { offset: 0x95CB, size: 0x8, addend: 0x0, symName: __ZNKSt3__16vectorIdNS_9allocatorIdEEE7__allocB8ne180100Ev, symObjAddr: 0xE2C, symBinAddr: 0x1000050BC, symSize: 0x28 }
  - { offset: 0x95F0, size: 0x8, addend: 0x0, symName: __ZNSt3__114numeric_limitsIlE3maxB8ne180100Ev, symObjAddr: 0xE54, symBinAddr: 0x1000050E4, symSize: 0x14 }
  - { offset: 0x960D, size: 0x8, addend: 0x0, symName: __ZNKSt3__16__lessIvvEclB8ne180100ImmEEbRKT_RKT0_, symObjAddr: 0xECC, symBinAddr: 0x10000515C, symSize: 0x34 }
  - { offset: 0x965F, size: 0x8, addend: 0x0, symName: __ZNKSt3__19allocatorIdE8max_sizeB8ne180100Ev, symObjAddr: 0xF00, symBinAddr: 0x100005190, symSize: 0x14 }
  - { offset: 0x9683, size: 0x8, addend: 0x0, symName: __ZNKSt3__117__compressed_pairIPdNS_9allocatorIdEEE6secondB8ne180100Ev, symObjAddr: 0xF14, symBinAddr: 0x1000051A4, symSize: 0x24 }
  - { offset: 0x96A7, size: 0x8, addend: 0x0, symName: __ZNKSt3__122__compressed_pair_elemINS_9allocatorIdEELi1ELb1EE5__getB8ne180100Ev, symObjAddr: 0xF38, symBinAddr: 0x1000051C8, symSize: 0x14 }
  - { offset: 0x96CC, size: 0x8, addend: 0x0, symName: __ZNSt3__123__libcpp_numeric_limitsIlLb1EE3maxB8ne180100Ev, symObjAddr: 0xF4C, symBinAddr: 0x1000051DC, symSize: 0x8 }
  - { offset: 0x96DF, size: 0x8, addend: 0x0, symName: __ZNSt12length_errorC1B8ne180100EPKc, symObjAddr: 0xFB8, symBinAddr: 0x100005248, symSize: 0x34 }
  - { offset: 0x9715, size: 0x8, addend: 0x0, symName: __ZNSt12length_errorC2B8ne180100EPKc, symObjAddr: 0xFEC, symBinAddr: 0x10000527C, symSize: 0x44 }
  - { offset: 0x974B, size: 0x8, addend: 0x0, symName: __ZNSt3__19allocatorIdE8allocateB8ne180100Em, symObjAddr: 0x1030, symBinAddr: 0x1000052C0, symSize: 0x58 }
  - { offset: 0x977D, size: 0x8, addend: 0x0, symName: __ZNSt3__117__compressed_pairIPdNS_9allocatorIdEEE6secondB8ne180100Ev, symObjAddr: 0x1108, symBinAddr: 0x100005398, symSize: 0x24 }
  - { offset: 0x97A1, size: 0x8, addend: 0x0, symName: __ZNSt3__122__compressed_pair_elemINS_9allocatorIdEELi1ELb1EE5__getB8ne180100Ev, symObjAddr: 0x112C, symBinAddr: 0x1000053BC, symSize: 0x14 }
  - { offset: 0x97C5, size: 0x8, addend: 0x0, symName: __ZNSt3__117__compressed_pairIPdNS_9allocatorIdEEE5firstB8ne180100Ev, symObjAddr: 0x1140, symBinAddr: 0x1000053D0, symSize: 0x24 }
  - { offset: 0x97E9, size: 0x8, addend: 0x0, symName: __ZNSt3__122__compressed_pair_elemIPdLi0ELb0EE5__getB8ne180100Ev, symObjAddr: 0x1164, symBinAddr: 0x1000053F4, symSize: 0x14 }
  - { offset: 0x9826, size: 0x8, addend: 0x0, symName: __ZNSt3__16vectorIdNS_9allocatorIdEEE21_ConstructTransactionC1B8ne180100ERS3_m, symObjAddr: 0x1178, symBinAddr: 0x100005408, symSize: 0x3C }
  - { offset: 0x986D, size: 0x8, addend: 0x0, symName: __ZNSt3__116allocator_traitsINS_9allocatorIdEEE9constructB8ne180100IdJRKdEvEEvRS2_PT_DpOT0_, symObjAddr: 0x11B4, symBinAddr: 0x100005444, symSize: 0x34 }
  - { offset: 0x98C3, size: 0x8, addend: 0x0, symName: __ZNSt3__16vectorIdNS_9allocatorIdEEE21_ConstructTransactionD1B8ne180100Ev, symObjAddr: 0x11FC, symBinAddr: 0x10000548C, symSize: 0x2C }
  - { offset: 0x98EC, size: 0x8, addend: 0x0, symName: __ZNSt3__16vectorIdNS_9allocatorIdEEE21_ConstructTransactionC2B8ne180100ERS3_m, symObjAddr: 0x1228, symBinAddr: 0x1000054B8, symSize: 0x44 }
  - { offset: 0x9932, size: 0x8, addend: 0x0, symName: __ZNSt3__19allocatorIdE9constructB8ne180100IdJRKdEEEvPT_DpOT0_, symObjAddr: 0x126C, symBinAddr: 0x1000054FC, symSize: 0x28 }
  - { offset: 0x9987, size: 0x8, addend: 0x0, symName: __ZNSt3__16vectorIdNS_9allocatorIdEEE21_ConstructTransactionD2B8ne180100Ev, symObjAddr: 0x1294, symBinAddr: 0x100005524, symSize: 0x20 }
  - { offset: 0x99AF, size: 0x8, addend: 0x0, symName: __ZNSt3__128__exception_guard_exceptionsINS_6vectorIdNS_9allocatorIdEEE16__destroy_vectorEED2B8ne180100Ev, symObjAddr: 0x12B4, symBinAddr: 0x100005544, symSize: 0x50 }
  - { offset: 0x99D7, size: 0x8, addend: 0x0, symName: __ZNSt3__16vectorIdNS_9allocatorIdEEE16__destroy_vectorclB8ne180100Ev, symObjAddr: 0x1304, symBinAddr: 0x100005594, symSize: 0x90 }
  - { offset: 0x99FB, size: 0x8, addend: 0x0, symName: __ZNSt3__16vectorIdNS_9allocatorIdEEE7__clearB8ne180100Ev, symObjAddr: 0x1394, symBinAddr: 0x100005624, symSize: 0x28 }
  - { offset: 0x9A1F, size: 0x8, addend: 0x0, symName: __ZNKSt3__16vectorIdNS_9allocatorIdEEE17__annotate_deleteB8ne180100Ev, symObjAddr: 0x13BC, symBinAddr: 0x10000564C, symSize: 0x10 }
  - { offset: 0x9A44, size: 0x8, addend: 0x0, symName: __ZNSt3__116allocator_traitsINS_9allocatorIdEEE10deallocateB8ne180100ERS2_Pdm, symObjAddr: 0x13CC, symBinAddr: 0x10000565C, symSize: 0x34 }
  - { offset: 0x9A85, size: 0x8, addend: 0x0, symName: __ZNKSt3__16vectorIdNS_9allocatorIdEEE8capacityB8ne180100Ev, symObjAddr: 0x1400, symBinAddr: 0x100005690, symSize: 0x40 }
  - { offset: 0x9AA9, size: 0x8, addend: 0x0, symName: __ZNSt3__16vectorIdNS_9allocatorIdEEE22__base_destruct_at_endB8ne180100EPd, symObjAddr: 0x1440, symBinAddr: 0x1000056D0, symSize: 0x8C }
  - { offset: 0x9AEC, size: 0x8, addend: 0x0, symName: __ZNSt3__116allocator_traitsINS_9allocatorIdEEE7destroyB8ne180100IdvEEvRS2_PT_, symObjAddr: 0x14CC, symBinAddr: 0x10000575C, symSize: 0x2C }
  - { offset: 0x9B28, size: 0x8, addend: 0x0, symName: __ZNSt3__19allocatorIdE7destroyB8ne180100EPd, symObjAddr: 0x14F8, symBinAddr: 0x100005788, symSize: 0x14 }
  - { offset: 0x9B5A, size: 0x8, addend: 0x0, symName: __ZNSt3__19allocatorIdE10deallocateB8ne180100EPdm, symObjAddr: 0x150C, symBinAddr: 0x10000579C, symSize: 0x40 }
  - { offset: 0x9B9A, size: 0x8, addend: 0x0, symName: __ZNKSt3__16vectorIdNS_9allocatorIdEEE9__end_capB8ne180100Ev, symObjAddr: 0x15C8, symBinAddr: 0x100005858, symSize: 0x28 }
  - { offset: 0x9BBE, size: 0x8, addend: 0x0, symName: __ZNKSt3__117__compressed_pairIPdNS_9allocatorIdEEE5firstB8ne180100Ev, symObjAddr: 0x15F0, symBinAddr: 0x100005880, symSize: 0x24 }
  - { offset: 0x9BE2, size: 0x8, addend: 0x0, symName: __ZNKSt3__122__compressed_pair_elemIPdLi0ELb0EE5__getB8ne180100Ev, symObjAddr: 0x1614, symBinAddr: 0x1000058A4, symSize: 0x14 }
  - { offset: 0x9C06, size: 0x8, addend: 0x0, symName: __ZNSt3__16vectorIdNS_9allocatorIdEEED2B8ne180100Ev, symObjAddr: 0x1628, symBinAddr: 0x1000058B8, symSize: 0x40 }
  - { offset: 0x9C2E, size: 0x8, addend: 0x0, symName: __ZNSt3__16vectorINS0_IdNS_9allocatorIdEEEENS1_IS3_EEEC2EmRKS3_, symObjAddr: 0x1668, symBinAddr: 0x1000058F8, symSize: 0xDC }
  - { offset: 0x9C8B, size: 0x8, addend: 0x0, symName: __ZNSt3__117__compressed_pairIPNS_6vectorIdNS_9allocatorIdEEEENS2_IS4_EEEC1B8ne180100IDnNS_18__default_init_tagEEEOT_OT0_, symObjAddr: 0x1744, symBinAddr: 0x1000059D4, symSize: 0x3C }
  - { offset: 0x9CE1, size: 0x8, addend: 0x0, symName: __ZNSt3__16vectorINS0_IdNS_9allocatorIdEEEENS1_IS3_EEE16__destroy_vectorC1B8ne180100ERS5_, symObjAddr: 0x17C0, symBinAddr: 0x100005A50, symSize: 0x34 }
  - { offset: 0x9D18, size: 0x8, addend: 0x0, symName: __ZNSt3__16vectorINS0_IdNS_9allocatorIdEEEENS1_IS3_EEE11__vallocateB8ne180100Em, symObjAddr: 0x17F4, symBinAddr: 0x100005A84, symSize: 0xB4 }
  - { offset: 0x9D5A, size: 0x8, addend: 0x0, symName: __ZNSt3__16vectorINS0_IdNS_9allocatorIdEEEENS1_IS3_EEE18__construct_at_endEmRKS3_, symObjAddr: 0x18A8, symBinAddr: 0x100005B38, symSize: 0xD0 }
  - { offset: 0x9DD9, size: 0x8, addend: 0x0, symName: __ZNSt3__128__exception_guard_exceptionsINS_6vectorINS1_IdNS_9allocatorIdEEEENS2_IS4_EEE16__destroy_vectorEE10__completeB8ne180100Ev, symObjAddr: 0x1978, symBinAddr: 0x100005C08, symSize: 0x1C }
  - { offset: 0x9DFD, size: 0x8, addend: 0x0, symName: __ZNSt3__128__exception_guard_exceptionsINS_6vectorINS1_IdNS_9allocatorIdEEEENS2_IS4_EEE16__destroy_vectorEED1B8ne180100Ev, symObjAddr: 0x1994, symBinAddr: 0x100005C24, symSize: 0x2C }
  - { offset: 0x9E25, size: 0x8, addend: 0x0, symName: __ZNSt3__117__compressed_pairIPNS_6vectorIdNS_9allocatorIdEEEENS2_IS4_EEEC2B8ne180100IDnNS_18__default_init_tagEEEOT_OT0_, symObjAddr: 0x19C0, symBinAddr: 0x100005C50, symSize: 0x40 }
  - { offset: 0x9E7C, size: 0x8, addend: 0x0, symName: __ZNSt3__122__compressed_pair_elemIPNS_6vectorIdNS_9allocatorIdEEEELi0ELb0EEC2B8ne180100IDnvEEOT_, symObjAddr: 0x1A00, symBinAddr: 0x100005C90, symSize: 0x1C }
  - { offset: 0x9EBC, size: 0x8, addend: 0x0, symName: __ZNSt3__122__compressed_pair_elemINS_9allocatorINS_6vectorIdNS1_IdEEEEEELi1ELb1EEC2B8ne180100ENS_18__default_init_tagE, symObjAddr: 0x1A1C, symBinAddr: 0x100005CAC, symSize: 0x2C }
  - { offset: 0x9EEF, size: 0x8, addend: 0x0, symName: __ZNSt3__19allocatorINS_6vectorIdNS0_IdEEEEEC2B8ne180100Ev, symObjAddr: 0x1A48, symBinAddr: 0x100005CD8, symSize: 0x2C }
  - { offset: 0x9F18, size: 0x8, addend: 0x0, symName: __ZNSt3__116__non_trivial_ifILb1ENS_9allocatorINS_6vectorIdNS1_IdEEEEEEEC2B8ne180100Ev, symObjAddr: 0x1A74, symBinAddr: 0x100005D04, symSize: 0x14 }
  - { offset: 0x9F40, size: 0x8, addend: 0x0, symName: __ZNSt3__128__exception_guard_exceptionsINS_6vectorINS1_IdNS_9allocatorIdEEEENS2_IS4_EEE16__destroy_vectorEEC1B8ne180100ES7_, symObjAddr: 0x1A88, symBinAddr: 0x100005D18, symSize: 0x34 }
  - { offset: 0x9F77, size: 0x8, addend: 0x0, symName: __ZNSt3__128__exception_guard_exceptionsINS_6vectorINS1_IdNS_9allocatorIdEEEENS2_IS4_EEE16__destroy_vectorEEC2B8ne180100ES7_, symObjAddr: 0x1ABC, symBinAddr: 0x100005D4C, symSize: 0x24 }
  - { offset: 0x9FAE, size: 0x8, addend: 0x0, symName: __ZNSt3__16vectorINS0_IdNS_9allocatorIdEEEENS1_IS3_EEE16__destroy_vectorC2B8ne180100ERS5_, symObjAddr: 0x1AE0, symBinAddr: 0x100005D70, symSize: 0x20 }
  - { offset: 0x9FE5, size: 0x8, addend: 0x0, symName: __ZNKSt3__16vectorINS0_IdNS_9allocatorIdEEEENS1_IS3_EEE8max_sizeEv, symObjAddr: 0x1B00, symBinAddr: 0x100005D90, symSize: 0x60 }
  - { offset: 0xA00B, size: 0x8, addend: 0x0, symName: __ZNKSt3__16vectorINS0_IdNS_9allocatorIdEEEENS1_IS3_EEE20__throw_length_errorB8ne180100Ev, symObjAddr: 0x1B60, symBinAddr: 0x100005DF0, symSize: 0x1C }
  - { offset: 0xA02F, size: 0x8, addend: 0x0, symName: __ZNSt3__16vectorINS0_IdNS_9allocatorIdEEEENS1_IS3_EEE7__allocB8ne180100Ev, symObjAddr: 0x1BBC, symBinAddr: 0x100005E4C, symSize: 0x28 }
  - { offset: 0xA053, size: 0x8, addend: 0x0, symName: __ZNSt3__16vectorINS0_IdNS_9allocatorIdEEEENS1_IS3_EEE9__end_capB8ne180100Ev, symObjAddr: 0x1BE4, symBinAddr: 0x100005E74, symSize: 0x28 }
  - { offset: 0xA077, size: 0x8, addend: 0x0, symName: __ZNKSt3__16vectorINS0_IdNS_9allocatorIdEEEENS1_IS3_EEE14__annotate_newB8ne180100Em, symObjAddr: 0x1C0C, symBinAddr: 0x100005E9C, symSize: 0x14 }
  - { offset: 0xA0B5, size: 0x8, addend: 0x0, symName: __ZNSt3__116allocator_traitsINS_9allocatorINS_6vectorIdNS1_IdEEEEEEE8max_sizeB8ne180100IS5_vEEmRKS5_, symObjAddr: 0x1C20, symBinAddr: 0x100005EB0, symSize: 0x24 }
  - { offset: 0xA0E2, size: 0x8, addend: 0x0, symName: __ZNKSt3__16vectorINS0_IdNS_9allocatorIdEEEENS1_IS3_EEE7__allocB8ne180100Ev, symObjAddr: 0x1C44, symBinAddr: 0x100005ED4, symSize: 0x28 }
  - { offset: 0xA106, size: 0x8, addend: 0x0, symName: __ZNKSt3__19allocatorINS_6vectorIdNS0_IdEEEEE8max_sizeB8ne180100Ev, symObjAddr: 0x1C6C, symBinAddr: 0x100005EFC, symSize: 0x18 }
  - { offset: 0xA12A, size: 0x8, addend: 0x0, symName: __ZNKSt3__117__compressed_pairIPNS_6vectorIdNS_9allocatorIdEEEENS2_IS4_EEE6secondB8ne180100Ev, symObjAddr: 0x1C84, symBinAddr: 0x100005F14, symSize: 0x24 }
  - { offset: 0xA14E, size: 0x8, addend: 0x0, symName: __ZNKSt3__122__compressed_pair_elemINS_9allocatorINS_6vectorIdNS1_IdEEEEEELi1ELb1EE5__getB8ne180100Ev, symObjAddr: 0x1CA8, symBinAddr: 0x100005F38, symSize: 0x14 }
  - { offset: 0xA172, size: 0x8, addend: 0x0, symName: __ZNSt3__19allocatorINS_6vectorIdNS0_IdEEEEE8allocateB8ne180100Em, symObjAddr: 0x1CBC, symBinAddr: 0x100005F4C, symSize: 0x5C }
  - { offset: 0xA1A4, size: 0x8, addend: 0x0, symName: __ZNSt3__117__compressed_pairIPNS_6vectorIdNS_9allocatorIdEEEENS2_IS4_EEE6secondB8ne180100Ev, symObjAddr: 0x1D18, symBinAddr: 0x100005FA8, symSize: 0x24 }
  - { offset: 0xA1C8, size: 0x8, addend: 0x0, symName: __ZNSt3__122__compressed_pair_elemINS_9allocatorINS_6vectorIdNS1_IdEEEEEELi1ELb1EE5__getB8ne180100Ev, symObjAddr: 0x1D3C, symBinAddr: 0x100005FCC, symSize: 0x14 }
  - { offset: 0xA1EC, size: 0x8, addend: 0x0, symName: __ZNSt3__117__compressed_pairIPNS_6vectorIdNS_9allocatorIdEEEENS2_IS4_EEE5firstB8ne180100Ev, symObjAddr: 0x1D50, symBinAddr: 0x100005FE0, symSize: 0x24 }
  - { offset: 0xA210, size: 0x8, addend: 0x0, symName: __ZNSt3__122__compressed_pair_elemIPNS_6vectorIdNS_9allocatorIdEEEELi0ELb0EE5__getB8ne180100Ev, symObjAddr: 0x1D74, symBinAddr: 0x100006004, symSize: 0x14 }
  - { offset: 0xA24D, size: 0x8, addend: 0x0, symName: __ZNSt3__16vectorINS0_IdNS_9allocatorIdEEEENS1_IS3_EEE21_ConstructTransactionC1B8ne180100ERS5_m, symObjAddr: 0x1D88, symBinAddr: 0x100006018, symSize: 0x3C }
  - { offset: 0xA294, size: 0x8, addend: 0x0, symName: __ZNSt3__116allocator_traitsINS_9allocatorINS_6vectorIdNS1_IdEEEEEEE9constructB8ne180100IS4_JRKS4_EvEEvRS5_PT_DpOT0_, symObjAddr: 0x1DC4, symBinAddr: 0x100006054, symSize: 0x34 }
  - { offset: 0xA2EA, size: 0x8, addend: 0x0, symName: __ZNSt3__16vectorINS0_IdNS_9allocatorIdEEEENS1_IS3_EEE21_ConstructTransactionD1B8ne180100Ev, symObjAddr: 0x1E0C, symBinAddr: 0x10000609C, symSize: 0x2C }
  - { offset: 0xA313, size: 0x8, addend: 0x0, symName: __ZNSt3__16vectorINS0_IdNS_9allocatorIdEEEENS1_IS3_EEE21_ConstructTransactionC2B8ne180100ERS5_m, symObjAddr: 0x1E38, symBinAddr: 0x1000060C8, symSize: 0x4C }
  - { offset: 0xA359, size: 0x8, addend: 0x0, symName: __ZNSt3__19allocatorINS_6vectorIdNS0_IdEEEEE9constructB8ne180100IS3_JRKS3_EEEvPT_DpOT0_, symObjAddr: 0x1E84, symBinAddr: 0x100006114, symSize: 0x30 }
  - { offset: 0xA3AD, size: 0x8, addend: 0x0, symName: __ZNSt3__16vectorIdNS_9allocatorIdEEEC1ERKS3_, symObjAddr: 0x1EB4, symBinAddr: 0x100006144, symSize: 0x34 }
  - { offset: 0xA3E6, size: 0x8, addend: 0x0, symName: __ZNSt3__16vectorIdNS_9allocatorIdEEEC2ERKS3_, symObjAddr: 0x1EE8, symBinAddr: 0x100006178, symSize: 0x94 }
  - { offset: 0xA420, size: 0x8, addend: 0x0, symName: __ZNSt3__116allocator_traitsINS_9allocatorIdEEE37select_on_container_copy_constructionB8ne180100IS2_vvEES2_RKS2_, symObjAddr: 0x1F7C, symBinAddr: 0x10000620C, symSize: 0x10 }
  - { offset: 0xA453, size: 0x8, addend: 0x0, symName: __ZNSt3__117__compressed_pairIPdNS_9allocatorIdEEEC1B8ne180100IDnS3_EEOT_OT0_, symObjAddr: 0x1F8C, symBinAddr: 0x10000621C, symSize: 0x3C }
  - { offset: 0xA4A9, size: 0x8, addend: 0x0, symName: __ZNSt3__16vectorIdNS_9allocatorIdEEE16__init_with_sizeB8ne180100IPdS5_EEvT_T0_m, symObjAddr: 0x1FC8, symBinAddr: 0x100006258, symSize: 0xB8 }
  - { offset: 0xA51B, size: 0x8, addend: 0x0, symName: __ZNKSt3__16vectorIdNS_9allocatorIdEEE4sizeB8ne180100Ev, symObjAddr: 0x2080, symBinAddr: 0x100006310, symSize: 0x28 }
  - { offset: 0xA53F, size: 0x8, addend: 0x0, symName: __ZNSt3__117__compressed_pairIPdNS_9allocatorIdEEEC2B8ne180100IDnS3_EEOT_OT0_, symObjAddr: 0x20A8, symBinAddr: 0x100006338, symSize: 0x44 }
  - { offset: 0xA596, size: 0x8, addend: 0x0, symName: __ZNSt3__122__compressed_pair_elemINS_9allocatorIdEELi1ELb1EEC2B8ne180100IS2_vEEOT_, symObjAddr: 0x20EC, symBinAddr: 0x10000637C, symSize: 0x18 }
  - { offset: 0xA5D6, size: 0x8, addend: 0x0, symName: __ZNSt3__16vectorIdNS_9allocatorIdEEE18__construct_at_endIPdS5_EEvT_T0_m, symObjAddr: 0x2104, symBinAddr: 0x100006394, symSize: 0x8C }
  - { offset: 0xA668, size: 0x8, addend: 0x0, symName: __ZNSt3__14pairIPdS1_EC1B8ne180100IS1_S1_Li0EEEOT_OT0_, symObjAddr: 0x2340, symBinAddr: 0x1000065D0, symSize: 0x3C }
  - { offset: 0xA6C5, size: 0x8, addend: 0x0, symName: __ZNSt3__14pairIPdS1_EC2B8ne180100IS1_S1_Li0EEEOT_OT0_, symObjAddr: 0x237C, symBinAddr: 0x10000660C, symSize: 0x34 }
  - { offset: 0xA72B, size: 0x8, addend: 0x0, symName: __ZNKSt3__114__copy_trivialclB8ne180100IddLi0EEENS_4pairIPT_PT0_EES4_S4_S6_, symObjAddr: 0x252C, symBinAddr: 0x1000067BC, symSize: 0x48 }
  - { offset: 0xA791, size: 0x8, addend: 0x0, symName: __ZNSt3__14pairIPdS1_EC1B8ne180100IRS1_S1_Li0EEEOT_OT0_, symObjAddr: 0x26BC, symBinAddr: 0x10000694C, symSize: 0x3C }
  - { offset: 0xA7EE, size: 0x8, addend: 0x0, symName: __ZNSt3__14pairIPdS1_EC2B8ne180100IRS1_S1_Li0EEEOT_OT0_, symObjAddr: 0x26F8, symBinAddr: 0x100006988, symSize: 0x34 }
  - { offset: 0xA84B, size: 0x8, addend: 0x0, symName: __ZNSt3__118__unwrap_iter_implIPdLb1EE8__unwrapB8ne180100ES1_, symObjAddr: 0x272C, symBinAddr: 0x1000069BC, symSize: 0x24 }
  - { offset: 0xA86E, size: 0x8, addend: 0x0, symName: __ZNSt3__118__unwrap_iter_implIPdLb1EE8__rewrapB8ne180100ES1_S1_, symObjAddr: 0x2750, symBinAddr: 0x1000069E0, symSize: 0x50 }
  - { offset: 0xA89F, size: 0x8, addend: 0x0, symName: __ZNSt3__16vectorINS0_IdNS_9allocatorIdEEEENS1_IS3_EEE21_ConstructTransactionD2B8ne180100Ev, symObjAddr: 0x27A0, symBinAddr: 0x100006A30, symSize: 0x20 }
  - { offset: 0xA8C7, size: 0x8, addend: 0x0, symName: __ZNSt3__128__exception_guard_exceptionsINS_6vectorINS1_IdNS_9allocatorIdEEEENS2_IS4_EEE16__destroy_vectorEED2B8ne180100Ev, symObjAddr: 0x27C0, symBinAddr: 0x100006A50, symSize: 0x50 }
  - { offset: 0xA8EF, size: 0x8, addend: 0x0, symName: __ZNSt3__16vectorINS0_IdNS_9allocatorIdEEEENS1_IS3_EEE16__destroy_vectorclB8ne180100Ev, symObjAddr: 0x2810, symBinAddr: 0x100006AA0, symSize: 0x90 }
  - { offset: 0xA913, size: 0x8, addend: 0x0, symName: __ZNSt3__16vectorINS0_IdNS_9allocatorIdEEEENS1_IS3_EEE7__clearB8ne180100Ev, symObjAddr: 0x28A0, symBinAddr: 0x100006B30, symSize: 0x28 }
  - { offset: 0xA937, size: 0x8, addend: 0x0, symName: __ZNKSt3__16vectorINS0_IdNS_9allocatorIdEEEENS1_IS3_EEE17__annotate_deleteB8ne180100Ev, symObjAddr: 0x28C8, symBinAddr: 0x100006B58, symSize: 0x10 }
  - { offset: 0xA95C, size: 0x8, addend: 0x0, symName: __ZNSt3__116allocator_traitsINS_9allocatorINS_6vectorIdNS1_IdEEEEEEE10deallocateB8ne180100ERS5_PS4_m, symObjAddr: 0x28D8, symBinAddr: 0x100006B68, symSize: 0x34 }
  - { offset: 0xA99D, size: 0x8, addend: 0x0, symName: __ZNKSt3__16vectorINS0_IdNS_9allocatorIdEEEENS1_IS3_EEE8capacityB8ne180100Ev, symObjAddr: 0x290C, symBinAddr: 0x100006B9C, symSize: 0x40 }
  - { offset: 0xA9C1, size: 0x8, addend: 0x0, symName: __ZNSt3__16vectorINS0_IdNS_9allocatorIdEEEENS1_IS3_EEE22__base_destruct_at_endB8ne180100EPS3_, symObjAddr: 0x294C, symBinAddr: 0x100006BDC, symSize: 0x8C }
  - { offset: 0xAA04, size: 0x8, addend: 0x0, symName: __ZNSt3__116allocator_traitsINS_9allocatorINS_6vectorIdNS1_IdEEEEEEE7destroyB8ne180100IS4_vEEvRS5_PT_, symObjAddr: 0x29D8, symBinAddr: 0x100006C68, symSize: 0x2C }
  - { offset: 0xAA40, size: 0x8, addend: 0x0, symName: __ZNSt3__19allocatorINS_6vectorIdNS0_IdEEEEE7destroyB8ne180100EPS3_, symObjAddr: 0x2A04, symBinAddr: 0x100006C94, symSize: 0x28 }
  - { offset: 0xAA72, size: 0x8, addend: 0x0, symName: __ZNSt3__19allocatorINS_6vectorIdNS0_IdEEEEE10deallocateB8ne180100EPS3_m, symObjAddr: 0x2A2C, symBinAddr: 0x100006CBC, symSize: 0x44 }
  - { offset: 0xAAB2, size: 0x8, addend: 0x0, symName: __ZNKSt3__16vectorINS0_IdNS_9allocatorIdEEEENS1_IS3_EEE9__end_capB8ne180100Ev, symObjAddr: 0x2A70, symBinAddr: 0x100006D00, symSize: 0x28 }
  - { offset: 0xAAD6, size: 0x8, addend: 0x0, symName: __ZNKSt3__117__compressed_pairIPNS_6vectorIdNS_9allocatorIdEEEENS2_IS4_EEE5firstB8ne180100Ev, symObjAddr: 0x2A98, symBinAddr: 0x100006D28, symSize: 0x24 }
  - { offset: 0xAAFA, size: 0x8, addend: 0x0, symName: __ZNKSt3__122__compressed_pair_elemIPNS_6vectorIdNS_9allocatorIdEEEELi0ELb0EE5__getB8ne180100Ev, symObjAddr: 0x2ABC, symBinAddr: 0x100006D4C, symSize: 0x14 }
  - { offset: 0xAB1E, size: 0x8, addend: 0x0, symName: __ZNSt3__16vectorINS0_IdNS_9allocatorIdEEEENS1_IS3_EEED2B8ne180100Ev, symObjAddr: 0x2AD0, symBinAddr: 0x100006D60, symSize: 0x40 }
  - { offset: 0xAB47, size: 0x8, addend: 0x0, symName: __ZNSt3__111char_traitsIcE6lengthB8ne180100EPKc, symObjAddr: 0x2D28, symBinAddr: 0x100006FB8, symSize: 0x34 }
  - { offset: 0xAB87, size: 0x8, addend: 0x0, symName: __ZNKSt3__113basic_ostreamIcNS_11char_traitsIcEEE6sentrycvbB8ne180100Ev, symObjAddr: 0x2D5C, symBinAddr: 0x100006FEC, symSize: 0x1C }
  - { offset: 0xABAB, size: 0x8, addend: 0x0, symName: __ZNSt3__119ostreambuf_iteratorIcNS_11char_traitsIcEEEC1B8ne180100ERNS_13basic_ostreamIcS2_EE, symObjAddr: 0x2FB8, symBinAddr: 0x100007248, symSize: 0x34 }
  - { offset: 0xABE1, size: 0x8, addend: 0x0, symName: __ZNKSt3__18ios_base5flagsB8ne180100Ev, symObjAddr: 0x2FEC, symBinAddr: 0x10000727C, symSize: 0x18 }
  - { offset: 0xAC07, size: 0x8, addend: 0x0, symName: __ZNKSt3__19basic_iosIcNS_11char_traitsIcEEE4fillB8ne180100Ev, symObjAddr: 0x3004, symBinAddr: 0x100007294, symSize: 0x64 }
  - { offset: 0xAC2D, size: 0x8, addend: 0x0, symName: __ZNKSt3__119ostreambuf_iteratorIcNS_11char_traitsIcEEE6failedB8ne180100Ev, symObjAddr: 0x3068, symBinAddr: 0x1000072F8, symSize: 0x24 }
  - { offset: 0xAC51, size: 0x8, addend: 0x0, symName: __ZNSt3__19basic_iosIcNS_11char_traitsIcEEE8setstateB8ne180100Ej, symObjAddr: 0x308C, symBinAddr: 0x10000731C, symSize: 0x2C }
  - { offset: 0xAC84, size: 0x8, addend: 0x0, symName: __ZNKSt3__18ios_base5widthB8ne180100Ev, symObjAddr: 0x30B8, symBinAddr: 0x100007348, symSize: 0x18 }
  - { offset: 0xACAA, size: 0x8, addend: 0x0, symName: __ZNSt3__115basic_streambufIcNS_11char_traitsIcEEE5sputnB8ne180100EPKcl, symObjAddr: 0x30D0, symBinAddr: 0x100007360, symSize: 0x3C }
  - { offset: 0xACEA, size: 0x8, addend: 0x0, symName: __ZNSt3__112basic_stringIcNS_11char_traitsIcEENS_9allocatorIcEEEC1B8ne180100Emc, symObjAddr: 0x310C, symBinAddr: 0x10000739C, symSize: 0x3C }
  - { offset: 0xAD30, size: 0x8, addend: 0x0, symName: __ZNKSt3__112basic_stringIcNS_11char_traitsIcEENS_9allocatorIcEEE4dataB8ne180100Ev, symObjAddr: 0x3148, symBinAddr: 0x1000073D8, symSize: 0x28 }
  - { offset: 0xAD54, size: 0x8, addend: 0x0, symName: __ZNSt3__18ios_base5widthB8ne180100El, symObjAddr: 0x3170, symBinAddr: 0x100007400, symSize: 0x2C }
  - { offset: 0xAD98, size: 0x8, addend: 0x0, symName: __ZNSt3__112basic_stringIcNS_11char_traitsIcEENS_9allocatorIcEEEC2B8ne180100Emc, symObjAddr: 0x319C, symBinAddr: 0x10000742C, symSize: 0x4C }
  - { offset: 0xADDE, size: 0x8, addend: 0x0, symName: __ZNSt3__117__compressed_pairINS_12basic_stringIcNS_11char_traitsIcEENS_9allocatorIcEEE5__repES5_EC1B8ne180100INS_18__default_init_tagESA_EEOT_OT0_, symObjAddr: 0x31E8, symBinAddr: 0x100007478, symSize: 0x3C }
  - { offset: 0xAE34, size: 0x8, addend: 0x0, symName: __ZNSt3__117__compressed_pairINS_12basic_stringIcNS_11char_traitsIcEENS_9allocatorIcEEE5__repES5_EC2B8ne180100INS_18__default_init_tagESA_EEOT_OT0_, symObjAddr: 0x3224, symBinAddr: 0x1000074B4, symSize: 0x3C }
  - { offset: 0xAE8B, size: 0x8, addend: 0x0, symName: __ZNSt3__122__compressed_pair_elemINS_12basic_stringIcNS_11char_traitsIcEENS_9allocatorIcEEE5__repELi0ELb0EEC2B8ne180100ENS_18__default_init_tagE, symObjAddr: 0x3260, symBinAddr: 0x1000074F0, symSize: 0x14 }
  - { offset: 0xAEBE, size: 0x8, addend: 0x0, symName: __ZNSt3__122__compressed_pair_elemINS_9allocatorIcEELi1ELb1EEC2B8ne180100ENS_18__default_init_tagE, symObjAddr: 0x3274, symBinAddr: 0x100007504, symSize: 0x2C }
  - { offset: 0xAEF1, size: 0x8, addend: 0x0, symName: __ZNSt3__19allocatorIcEC2B8ne180100Ev, symObjAddr: 0x32A0, symBinAddr: 0x100007530, symSize: 0x2C }
  - { offset: 0xAF1A, size: 0x8, addend: 0x0, symName: __ZNSt3__116__non_trivial_ifILb1ENS_9allocatorIcEEEC2B8ne180100Ev, symObjAddr: 0x32CC, symBinAddr: 0x10000755C, symSize: 0x14 }
  - { offset: 0xAF42, size: 0x8, addend: 0x0, symName: __ZNKSt3__112basic_stringIcNS_11char_traitsIcEENS_9allocatorIcEEE13__get_pointerB8ne180100Ev, symObjAddr: 0x32F4, symBinAddr: 0x100007584, symSize: 0x54 }
  - { offset: 0xAF66, size: 0x8, addend: 0x0, symName: __ZNKSt3__112basic_stringIcNS_11char_traitsIcEENS_9allocatorIcEEE9__is_longB8ne180100Ev, symObjAddr: 0x3348, symBinAddr: 0x1000075D8, symSize: 0x38 }
  - { offset: 0xAF8A, size: 0x8, addend: 0x0, symName: __ZNKSt3__112basic_stringIcNS_11char_traitsIcEENS_9allocatorIcEEE18__get_long_pointerB8ne180100Ev, symObjAddr: 0x3380, symBinAddr: 0x100007610, symSize: 0x28 }
  - { offset: 0xAFAE, size: 0x8, addend: 0x0, symName: __ZNKSt3__112basic_stringIcNS_11char_traitsIcEENS_9allocatorIcEEE19__get_short_pointerB8ne180100Ev, symObjAddr: 0x33A8, symBinAddr: 0x100007638, symSize: 0x28 }
  - { offset: 0xAFD2, size: 0x8, addend: 0x0, symName: __ZNKSt3__117__compressed_pairINS_12basic_stringIcNS_11char_traitsIcEENS_9allocatorIcEEE5__repES5_E5firstB8ne180100Ev, symObjAddr: 0x33D0, symBinAddr: 0x100007660, symSize: 0x24 }
  - { offset: 0xAFF6, size: 0x8, addend: 0x0, symName: __ZNKSt3__122__compressed_pair_elemINS_12basic_stringIcNS_11char_traitsIcEENS_9allocatorIcEEE5__repELi0ELb0EE5__getB8ne180100Ev, symObjAddr: 0x33F4, symBinAddr: 0x100007684, symSize: 0x14 }
  - { offset: 0xB01B, size: 0x8, addend: 0x0, symName: __ZNSt3__114pointer_traitsIPKcE10pointer_toB8ne180100ERS1_, symObjAddr: 0x3408, symBinAddr: 0x100007698, symSize: 0x14 }
  - { offset: 0xB03D, size: 0x8, addend: 0x0, symName: __ZNSt3__119ostreambuf_iteratorIcNS_11char_traitsIcEEEC2B8ne180100ERNS_13basic_ostreamIcS2_EE, symObjAddr: 0x341C, symBinAddr: 0x1000076AC, symSize: 0x54 }
  - { offset: 0xB073, size: 0x8, addend: 0x0, symName: __ZNKSt3__19basic_iosIcNS_11char_traitsIcEEE5rdbufB8ne180100Ev, symObjAddr: 0x3470, symBinAddr: 0x100007700, symSize: 0x24 }
  - { offset: 0xB099, size: 0x8, addend: 0x0, symName: __ZNKSt3__18ios_base5rdbufB8ne180100Ev, symObjAddr: 0x3494, symBinAddr: 0x100007724, symSize: 0x18 }
  - { offset: 0xB0BE, size: 0x8, addend: 0x0, symName: __ZNSt3__111char_traitsIcE11eq_int_typeB8ne180100Eii, symObjAddr: 0x34AC, symBinAddr: 0x10000773C, symSize: 0x28 }
  - { offset: 0xB0F1, size: 0x8, addend: 0x0, symName: __ZNSt3__111char_traitsIcE3eofB8ne180100Ev, symObjAddr: 0x34D4, symBinAddr: 0x100007764, symSize: 0x8 }
  - { offset: 0xB104, size: 0x8, addend: 0x0, symName: __ZNKSt3__19basic_iosIcNS_11char_traitsIcEEE5widenB8ne180100Ec, symObjAddr: 0x34DC, symBinAddr: 0x10000776C, symSize: 0x84 }
  - { offset: 0xB176, size: 0x8, addend: 0x0, symName: __ZNKSt3__15ctypeIcE5widenB8ne180100Ec, symObjAddr: 0x358C, symBinAddr: 0x10000781C, symSize: 0x38 }
  - { offset: 0xB1A9, size: 0x8, addend: 0x0, symName: __ZNSt3__18ios_base8setstateB8ne180100Ej, symObjAddr: 0x35C4, symBinAddr: 0x100007854, symSize: 0x34 }
...
